Certificate:
    Data:
        Version: 3 (0x2)
        Serial Number: 4096 (0x1000)
        Signature Algorithm: md5WithRSAEncryption
        Issuer: C=US, ST=US, L=US, O=US, OU=US, CN=USCertCA/emailAddress=u0858882@utah.edu
        Validity
            Not Before: Mar 15 23:04:18 2024 GMT
            Not After : Mar 15 23:04:18 2025 GMT
        Subject: C=US, ST=US, O=US, OU=US, CN=Server/emailAddress=u0858882@utah.edu
        Subject Public Key Info:
            Public Key Algorithm: rsaEncryption
                Public-Key: (4096 bit)
                Modulus:
                    00:e0:66:38:46:06:20:69:22:43:b5:6d:0d:e2:53:
                    f3:9d:e2:78:ef:40:47:44:25:b5:e9:e5:1c:b6:18:
                    b8:95:d0:91:3b:75:53:08:b4:61:02:00:6c:67:6f:
                    52:89:7d:f8:bb:fa:18:5e:86:c8:08:eb:b8:ff:cd:
                    8e:a6:bf:71:cd:08:41:06:0e:f1:da:cf:cb:c6:64:
                    c3:83:d7:0e:f2:4b:8e:24:57:8a:54:fe:35:1a:95:
                    77:60:32:0a:99:ae:bf:70:0e:af:6a:d6:4b:45:1f:
                    2f:b0:4f:df:50:aa:23:66:48:1a:54:3f:e8:cd:40:
                    95:5e:73:c2:4c:4b:9c:0a:02:eb:98:83:b8:76:19:
                    58:13:a6:38:bf:ad:63:23:83:1e:79:b1:9d:2b:73:
                    b2:b1:a2:a3:aa:a9:b2:fa:0e:2a:cd:f4:86:bd:da:
                    cc:24:b5:08:73:13:c1:24:1f:94:03:a5:d5:62:40:
                    b7:ec:32:e1:74:5d:ed:11:44:9e:1a:31:58:4a:59:
                    bc:00:7f:23:17:59:9a:0f:4f:d9:7a:49:b6:56:21:
                    98:c5:2c:45:d0:39:77:93:09:72:fa:23:63:d3:3d:
                    ae:5a:6c:cb:c6:a6:28:cb:e4:f5:43:0e:42:4f:7c:
                    0d:ec:0f:ea:d6:48:95:01:ad:58:1e:e0:ed:3f:56:
                    3b:ce:c5:c5:93:c7:bf:49:fc:27:49:3b:f2:4e:c8:
                    3e:90:2c:27:23:97:c8:ec:80:43:ec:10:81:b5:10:
                    83:a1:0c:05:05:82:3d:e0:40:f1:49:8c:86:54:f3:
                    a5:47:0c:23:fc:ce:e2:50:d2:64:15:b1:79:d1:c8:
                    dd:ec:89:d4:95:2f:4c:9b:85:cf:1f:26:a3:30:fe:
                    e3:a4:ba:83:6c:d5:5f:3b:f5:ea:3e:d4:25:29:6c:
                    92:26:8f:f7:c3:9a:9c:1a:5f:3e:34:09:40:3d:9f:
                    c6:46:cf:e7:cb:9f:5c:9f:48:8a:58:dd:a2:9c:37:
                    a5:3b:37:1c:15:79:61:81:10:03:e3:25:a5:ce:3d:
                    e6:8e:2e:62:6b:d8:e3:4b:4a:9b:52:a1:9c:82:17:
                    df:18:6e:b0:0f:13:1b:6a:29:13:31:d1:5a:1d:3c:
                    86:bc:ea:00:a0:fe:ed:da:86:65:82:71:e7:29:fd:
                    e2:b7:2b:cc:41:2c:ee:e3:e3:01:99:1f:80:b1:33:
                    90:4b:65:6b:ec:24:12:f8:67:5e:9b:4a:42:1b:32:
                    56:7e:5e:98:75:6f:69:68:3e:ad:b3:9e:f9:cb:d4:
                    f4:ab:61:80:a0:7c:87:98:a6:2e:59:0b:b0:7b:ac:
                    9e:ec:9e:a9:59:f6:df:d0:e3:dd:81:12:cb:16:79:
                    dd:33:1f
                Exponent: 65537 (0x10001)
        X509v3 extensions:
            X509v3 Basic Constraints: 
                CA:FALSE
            Netscape Comment: 
                OpenSSL Generated Certificate
            X509v3 Subject Key Identifier: 
                C4:66:23:B7:3F:89:40:9C:BF:0F:BF:D3:EA:6A:DC:F8:91:92:C2:49
            X509v3 Authority Key Identifier: 
                keyid:88:A3:6F:27:6A:B5:71:2C:43:6F:31:DC:C9:6C:71:A6:8C:CD:4C:29
                DirName:/C=US/ST=US/L=US/O=US/OU=US/CN=USCertCA/emailAddress=u0858882@utah.edu
                serial:19:CD:FB:C3:5D:44:AE:BF:0B:6D:4D:5B:08:5D:FD:4B:CD:0C:7F:36
    Signature Algorithm: md5WithRSAEncryption
    Signature Value:
        04:a6:87:5b:14:71:70:e3:04:eb:d1:ef:51:2a:36:a6:52:d3:
        ea:f4:2b:bf:3a:b4:6e:a5:a5:cb:8b:0a:12:07:c9:0c:67:7a:
        95:c2:71:e9:77:41:00:26:a6:d6:a3:31:90:38:47:02:18:6e:
        7a:23:be:61:32:b8:b3:46:d1:88:09:e5:88:d9:26:9b:b2:e9:
        2d:44:11:4e:d4:61:01:a4:79:9c:2f:77:0c:e8:98:e8:b5:7c:
        33:7f:69:53:4a:07:d9:7d:5c:84:d3:8c:bb:79:a4:05:d0:c6:
        c1:f0:3c:20:0d:eb:3d:a7:05:90:80:e7:ec:4a:48:e7:cf:78:
        22:4b:cd:23:f2:46:c7:c3:6c:94:66:c5:85:21:51:79:e3:84:
        40:50:22:35:f9:8c:c3:c6:47:e0:0a:c2:d3:97:79:25:bd:cd:
        ba:c4:2a:99:19:a2:b5:be:31:c4:eb:80:1d:67:a1:7c:21:2a:
        37:a5:cc:19:f6:c5:56:98:da:3f:24:ff:52:9d:d7:4e:9b:69:
        5f:83:74:6b:c5:84:08:7b:df:c7:83:01:8e:5c:29:3c:4d:42:
        82:6f:62:78:b9:d0:78:56:6f:55:1d:38:45:aa:3a:c9:14:37:
        fd:cc:51:8f:d0:d2:fd:59:fe:43:5e:b9:91:c1:4f:84:22:e5:
        3b:40:00:97:f2:ab:d8:1d:42:f1:b3:ec:2d:97:74:7b:39:bb:
        be:e3:99:63:99:ca:46:1c:b0:c0:c1:89:98:8f:2c:59:20:07:
        57:bf:63:94:83:2f:8e:51:5d:d4:2b:40:51:37:90:38:44:a5:
        51:cb:f8:2a:c8:40:14:0c:6c:f6:dc:31:54:a8:2d:7f:85:d1:
        09:87:52:6e:ff:4a:6a:e2:a3:fa:5e:0e:90:11:0c:f2:97:e7:
        71:35:a4:9d:f5:4e:aa:4b:88:ee:f9:11:6f:d5:79:21:02:8e:
        f6:7b:b9:d7:cd:93:a6:88:cf:39:c8:fc:3b:4f:68:3d:d8:59:
        e4:22:41:57:d2:38:c5:42:b6:9f:53:e3:35:89:ae:5f:b7:8a:
        1a:79:71:2f:1a:c7:cb:13:7c:46:c6:1a:ee:e3:f1:f2:4f:35:
        03:44:4c:71:c6:38:f3:0e:35:12:8d:09:ed:71:81:d6:95:8b:
        6b:7e:8c:c4:7f:24:5e:1e:56:61:80:32:73:f5:2b:6e:aa:b1:
        c8:f4:bf:74:fa:4f:de:8f:d6:9d:92:c6:20:cb:cc:53:34:98:
        bf:9a:3f:1d:e9:8f:56:f8:9b:1c:52:a3:7f:f8:f8:f1:8b:ae:
        4e:59:c2:df:4c:6f:3d:c7:d7:c3:73:10:e7:19:ed:db:42:33:
        2d:6e:3e:20:f9:28:b7:0a
-----BEGIN CERTIFICATE-----
MIIGbTCCBFWgAwIBAgICEAAwDQYJKoZIhvcNAQEEBQAwdjELMAkGA1UEBhMCVVMx
CzAJBgNVBAgMAlVTMQswCQYDVQQHDAJVUzELMAkGA1UECgwCVVMxCzAJBgNVBAsM
AlVTMREwDwYDVQQDDAhVU0NlcnRDQTEgMB4GCSqGSIb3DQEJARYRdTA4NTg4ODJA
dXRhaC5lZHUwHhcNMjQwMzE1MjMwNDE4WhcNMjUwMzE1MjMwNDE4WjBnMQswCQYD
VQQGEwJVUzELMAkGA1UECAwCVVMxCzAJBgNVBAoMAlVTMQswCQYDVQQLDAJVUzEP
MA0GA1UEAwwGU2VydmVyMSAwHgYJKoZIhvcNAQkBFhF1MDg1ODg4MkB1dGFoLmVk
dTCCAiIwDQYJKoZIhvcNAQEBBQADggIPADCCAgoCggIBAOBmOEYGIGkiQ7VtDeJT
853ieO9AR0QltenlHLYYuJXQkTt1Uwi0YQIAbGdvUol9+Lv6GF6GyAjruP/Njqa/
cc0IQQYO8drPy8Zkw4PXDvJLjiRXilT+NRqVd2AyCpmuv3AOr2rWS0UfL7BP31Cq
I2ZIGlQ/6M1AlV5zwkxLnAoC65iDuHYZWBOmOL+tYyODHnmxnStzsrGio6qpsvoO
Ks30hr3azCS1CHMTwSQflAOl1WJAt+wy4XRd7RFEnhoxWEpZvAB/IxdZmg9P2XpJ
tlYhmMUsRdA5d5MJcvojY9M9rlpsy8amKMvk9UMOQk98DewP6tZIlQGtWB7g7T9W
O87FxZPHv0n8J0k78k7IPpAsJyOXyOyAQ+wQgbUQg6EMBQWCPeBA8UmMhlTzpUcM
I/zO4lDSZBWxedHI3eyJ1JUvTJuFzx8mozD+46S6g2zVXzv16j7UJSlskiaP98Oa
nBpfPjQJQD2fxkbP58ufXJ9Iiljdopw3pTs3HBV5YYEQA+Mlpc495o4uYmvY40tK
m1KhnIIX3xhusA8TG2opEzHRWh08hrzqAKD+7dqGZYJx5yn94rcrzEEs7uPjAZkf
gLEzkEtla+wkEvhnXptKQhsyVn5emHVvaWg+rbOe+cvU9KthgKB8h5imLlkLsHus
nuyeqVn239Dj3YESyxZ53TMfAgMBAAGjggESMIIBDjAJBgNVHRMEAjAAMCwGCWCG
SAGG+EIBDQQfFh1PcGVuU1NMIEdlbmVyYXRlZCBDZXJ0aWZpY2F0ZTAdBgNVHQ4E
FgQUxGYjtz+JQJy/D7/T6mrc+JGSwkkwgbMGA1UdIwSBqzCBqIAUiKNvJ2q1cSxD
bzHcyWxxpozNTCmheqR4MHYxCzAJBgNVBAYTAlVTMQswCQYDVQQIDAJVUzELMAkG
A1UEBwwCVVMxCzAJBgNVBAoMAlVTMQswCQYDVQQLDAJVUzERMA8GA1UEAwwIVVND
ZXJ0Q0ExIDAeBgkqhkiG9w0BCQEWEXUwODU4ODgyQHV0YWguZWR1ghQZzfvDXUSu
vwttTVsIXf1LzQx/NjANBgkqhkiG9w0BAQQFAAOCAgEABKaHWxRxcOME69HvUSo2
plLT6vQrvzq0bqWly4sKEgfJDGd6lcJx6XdBACam1qMxkDhHAhhueiO+YTK4s0bR
iAnliNkmm7LpLUQRTtRhAaR5nC93DOiY6LV8M39pU0oH2X1chNOMu3mkBdDGwfA8
IA3rPacFkIDn7EpI5894IkvNI/JGx8NslGbFhSFReeOEQFAiNfmMw8ZH4ArC05d5
Jb3NusQqmRmitb4xxOuAHWehfCEqN6XMGfbFVpjaPyT/Up3XTptpX4N0a8WECHvf
x4MBjlwpPE1Cgm9ieLnQeFZvVR04Rao6yRQ3/cxRj9DS/Vn+Q165kcFPhCLlO0AA
l/Kr2B1C8bPsLZd0ezm7vuOZY5nKRhywwMGJmI8sWSAHV79jlIMvjlFd1CtAUTeQ
OESlUcv4KshAFAxs9twxVKgtf4XRCYdSbv9KauKj+l4OkBEM8pfncTWknfVOqkuI
7vkRb9V5IQKO9nu5182TpojPOcj8O09oPdhZ5CJBV9I4xUK2n1PjNYmuX7eKGnlx
LxrHyxN8RsYa7uPx8k81A0RMccY48w41Eo0J7XGB1pWLa36MxH8kXh5WYYAyc/Ur
bqqxyPS/dPpP3o/WnZLGIMvMUzSYv5o/HemPVvibHFKjf/j48YuuTlnC30xvPcfX
w3MQ5xnt20IzLW4+IPkotwo=
-----END CERTIFICATE-----
