Certificate:
    Data:
        Version: 3 (0x2)
        Serial Number: 4097 (0x1001)
        Signature Algorithm: md5WithRSAEncryption
        Issuer: C=US, ST=US, L=US, O=US, OU=US, CN=USCertCA/emailAddress=u0858882@utah.edu
        Validity
            Not Before: Mar 15 23:05:02 2024 GMT
            Not After : Mar 15 23:05:02 2025 GMT
        Subject: C=US, ST=US, O=US, OU=US, CN=Client/emailAddress=u0858882@utah.edu
        Subject Public Key Info:
            Public Key Algorithm: rsaEncryption
                Public-Key: (4096 bit)
                Modulus:
                    00:ee:ea:bd:87:51:2f:ab:b2:9e:75:9f:57:e1:1c:
                    ac:89:86:3b:a6:2f:dc:73:dc:66:d2:d6:ce:78:24:
                    d2:18:df:33:f9:88:32:61:5d:bc:43:37:f2:66:92:
                    d0:b7:df:5a:40:00:f0:34:27:53:7f:20:fd:c3:29:
                    99:e5:93:d0:8a:84:54:9c:97:0b:5c:ab:b4:eb:11:
                    df:39:9e:67:3b:6b:a0:d2:f2:a1:1d:36:4d:58:a8:
                    37:a5:43:9f:7d:9a:b5:b6:d9:16:2c:43:ba:38:50:
                    51:5f:b3:05:17:13:1b:e6:ab:9c:b0:5d:47:c3:34:
                    49:d7:1c:d2:c6:51:86:f8:51:26:fd:13:db:e2:39:
                    ad:70:95:40:f0:39:c6:e8:5d:92:93:71:10:44:c4:
                    ff:c9:0b:3f:17:78:c9:35:3e:da:30:cd:17:5b:a7:
                    d7:41:bf:56:0c:75:63:c6:ab:b1:7f:2c:2f:52:03:
                    8a:5a:9a:65:de:ed:c3:70:be:d9:00:8a:06:b2:45:
                    af:61:e8:a1:29:6c:57:bb:d2:41:9c:f8:3c:24:a0:
                    24:05:b0:52:78:8e:4c:bb:ae:32:26:8c:24:33:4f:
                    9a:9a:11:56:9b:00:10:a0:c4:3f:5e:2b:d1:77:43:
                    8f:1d:65:65:6a:2f:8a:ca:32:0a:71:8c:63:e9:38:
                    46:94:fa:bc:8d:36:9c:22:c7:a3:82:bc:71:97:3b:
                    b6:fc:95:e5:2c:ef:7b:7d:1c:a4:79:a9:e0:5e:96:
                    c1:91:3f:ae:2a:d4:58:ae:4c:3e:87:27:27:f4:b0:
                    8a:db:a2:7f:99:0f:45:65:8a:c6:20:71:b9:5a:54:
                    c1:c0:37:3b:93:9e:2a:60:ef:47:cc:bb:99:87:c9:
                    60:1c:a1:ea:a5:d8:f0:2b:8f:c4:a4:fe:0f:a4:22:
                    39:a6:f1:92:dd:9a:3c:bf:d6:b8:62:c5:e4:6a:28:
                    84:4a:93:4e:72:17:48:5a:14:bd:77:6b:ef:fc:f0:
                    58:41:fb:e6:d9:ba:0b:9c:ee:3e:6e:c0:00:90:18:
                    c4:26:eb:82:c6:7f:c9:55:fd:10:6d:55:bc:4b:2d:
                    6a:42:4d:c5:a3:a2:07:26:0a:a7:0b:da:91:64:7d:
                    22:70:2e:a4:a7:b2:4d:1d:2a:94:a4:ad:bf:f3:12:
                    98:05:5d:1c:ad:24:9c:31:eb:88:9f:81:90:bd:a5:
                    1f:19:c7:46:e3:78:29:d3:e8:3a:36:35:e7:2d:09:
                    7f:5e:52:c8:f5:ac:f8:5a:e8:e4:87:8d:13:05:18:
                    e3:da:b5:1a:10:f5:2f:64:d0:55:a9:1f:e0:05:87:
                    ca:0a:74:bc:d9:4c:11:ab:66:b3:9e:16:fb:27:60:
                    3e:27:db
                Exponent: 65537 (0x10001)
        X509v3 extensions:
            X509v3 Basic Constraints: 
                CA:FALSE
            Netscape Comment: 
                OpenSSL Generated Certificate
            X509v3 Subject Key Identifier: 
                98:89:AE:B0:66:1F:7C:E0:DF:A8:17:42:54:4A:4F:FE:D9:8A:C5:13
            X509v3 Authority Key Identifier: 
                keyid:88:A3:6F:27:6A:B5:71:2C:43:6F:31:DC:C9:6C:71:A6:8C:CD:4C:29
                DirName:/C=US/ST=US/L=US/O=US/OU=US/CN=USCertCA/emailAddress=u0858882@utah.edu
                serial:19:CD:FB:C3:5D:44:AE:BF:0B:6D:4D:5B:08:5D:FD:4B:CD:0C:7F:36
    Signature Algorithm: md5WithRSAEncryption
    Signature Value:
        32:f4:b2:f9:ae:ac:25:f3:0e:fe:83:94:57:41:20:31:4f:f0:
        fb:36:05:1b:bd:d3:c1:08:8f:44:e3:0d:95:a2:af:26:0f:b7:
        12:e9:05:26:86:5d:fe:cf:22:85:ee:30:b4:17:2c:53:87:c5:
        0d:1a:a4:95:57:b6:80:81:eb:cb:15:a2:dd:5b:33:97:af:ee:
        e0:ac:67:bf:84:1e:0f:04:01:e7:64:f8:3b:0c:6e:84:ce:c9:
        3f:06:36:53:6e:cb:a1:71:ba:45:b4:01:6d:61:51:5b:25:f9:
        aa:de:5b:d2:a6:41:11:58:5d:3b:6b:ab:4f:94:c7:b9:01:50:
        d4:7f:06:d9:1c:a5:93:2a:9f:61:ea:d7:80:7c:fa:97:e8:d5:
        c3:a3:f6:44:d9:16:2c:90:d0:bd:1d:8e:4b:2f:a6:95:69:a1:
        09:3a:3f:91:84:b5:b6:7a:05:f3:a5:1a:84:f5:d6:24:b2:89:
        c3:49:ed:bd:7b:28:68:3a:b4:aa:06:7b:2f:88:e0:da:7c:cc:
        e7:2e:bc:df:39:ff:e7:aa:43:76:1d:aa:fb:63:4c:ba:80:54:
        82:23:f1:ce:a8:e3:1e:d5:c9:9f:f0:fa:b1:82:8b:aa:34:76:
        40:87:41:c5:39:0e:56:b0:20:14:40:ec:d2:fb:2c:cd:78:af:
        61:00:09:5b:f2:f8:d9:5a:46:1f:a9:c6:60:43:b9:dc:27:cc:
        a9:90:d1:20:63:e2:ab:86:af:58:0c:c5:d4:4e:17:a6:56:6f:
        fa:82:39:31:d0:ee:3c:bb:03:96:9b:8a:41:c7:06:0b:67:e9:
        e9:c0:50:87:0e:43:f4:25:0c:11:13:f8:cc:5a:a2:2a:5e:01:
        1c:54:3d:7a:f7:a2:b7:a0:0b:8d:9f:0b:f1:d7:9c:35:d8:7b:
        15:cc:0e:c7:28:59:5d:98:82:96:6b:7f:1c:eb:b6:51:05:dc:
        1b:3d:4b:8e:4e:2c:0f:ad:ab:84:6f:5b:cc:01:26:7a:5d:e5:
        70:10:f6:7b:76:54:f1:bb:7c:81:ed:db:97:f4:24:b9:9d:72:
        ba:90:e8:56:de:c7:33:70:9d:d6:97:4b:bf:81:5e:5c:b6:b0:
        96:6d:8a:e8:15:71:ec:43:4b:01:b8:36:52:1d:aa:91:59:22:
        86:01:8f:15:e4:47:f7:bc:12:b6:7e:e7:24:a1:39:e5:13:11:
        a6:72:da:2e:4e:5a:a5:fd:07:0c:c7:a6:fd:cb:e7:b0:99:f8:
        cf:74:ad:b1:99:1c:82:aa:d8:15:c6:7b:e0:ff:9d:15:07:39:
        f9:90:1d:a9:de:04:47:a3:8f:43:1a:59:7f:77:a7:42:2d:af:
        45:94:29:47:ac:60:ed:f7
-----BEGIN CERTIFICATE-----
MIIGbTCCBFWgAwIBAgICEAEwDQYJKoZIhvcNAQEEBQAwdjELMAkGA1UEBhMCVVMx
CzAJBgNVBAgMAlVTMQswCQYDVQQHDAJVUzELMAkGA1UECgwCVVMxCzAJBgNVBAsM
AlVTMREwDwYDVQQDDAhVU0NlcnRDQTEgMB4GCSqGSIb3DQEJARYRdTA4NTg4ODJA
dXRhaC5lZHUwHhcNMjQwMzE1MjMwNTAyWhcNMjUwMzE1MjMwNTAyWjBnMQswCQYD
VQQGEwJVUzELMAkGA1UECAwCVVMxCzAJBgNVBAoMAlVTMQswCQYDVQQLDAJVUzEP
MA0GA1UEAwwGQ2xpZW50MSAwHgYJKoZIhvcNAQkBFhF1MDg1ODg4MkB1dGFoLmVk
dTCCAiIwDQYJKoZIhvcNAQEBBQADggIPADCCAgoCggIBAO7qvYdRL6uynnWfV+Ec
rImGO6Yv3HPcZtLWzngk0hjfM/mIMmFdvEM38maS0LffWkAA8DQnU38g/cMpmeWT
0IqEVJyXC1yrtOsR3zmeZztroNLyoR02TVioN6VDn32atbbZFixDujhQUV+zBRcT
G+arnLBdR8M0Sdcc0sZRhvhRJv0T2+I5rXCVQPA5xuhdkpNxEETE/8kLPxd4yTU+
2jDNF1un10G/Vgx1Y8arsX8sL1IDilqaZd7tw3C+2QCKBrJFr2HooSlsV7vSQZz4
PCSgJAWwUniOTLuuMiaMJDNPmpoRVpsAEKDEP14r0XdDjx1lZWovisoyCnGMY+k4
RpT6vI02nCLHo4K8cZc7tvyV5Szve30cpHmp4F6WwZE/rirUWK5MPocnJ/Switui
f5kPRWWKxiBxuVpUwcA3O5OeKmDvR8y7mYfJYByh6qXY8CuPxKT+D6QiOabxkt2a
PL/WuGLF5GoohEqTTnIXSFoUvXdr7/zwWEH75tm6C5zuPm7AAJAYxCbrgsZ/yVX9
EG1VvEstakJNxaOiByYKpwvakWR9InAupKeyTR0qlKStv/MSmAVdHK0knDHriJ+B
kL2lHxnHRuN4KdPoOjY15y0Jf15SyPWs+Fro5IeNEwUY49q1GhD1L2TQVakf4AWH
ygp0vNlMEatms54W+ydgPifbAgMBAAGjggESMIIBDjAJBgNVHRMEAjAAMCwGCWCG
SAGG+EIBDQQfFh1PcGVuU1NMIEdlbmVyYXRlZCBDZXJ0aWZpY2F0ZTAdBgNVHQ4E
FgQUmImusGYffODfqBdCVEpP/tmKxRMwgbMGA1UdIwSBqzCBqIAUiKNvJ2q1cSxD
bzHcyWxxpozNTCmheqR4MHYxCzAJBgNVBAYTAlVTMQswCQYDVQQIDAJVUzELMAkG
A1UEBwwCVVMxCzAJBgNVBAoMAlVTMQswCQYDVQQLDAJVUzERMA8GA1UEAwwIVVND
ZXJ0Q0ExIDAeBgkqhkiG9w0BCQEWEXUwODU4ODgyQHV0YWguZWR1ghQZzfvDXUSu
vwttTVsIXf1LzQx/NjANBgkqhkiG9w0BAQQFAAOCAgEAMvSy+a6sJfMO/oOUV0Eg
MU/w+zYFG73TwQiPROMNlaKvJg+3EukFJoZd/s8ihe4wtBcsU4fFDRqklVe2gIHr
yxWi3Vszl6/u4Kxnv4QeDwQB52T4OwxuhM7JPwY2U27LoXG6RbQBbWFRWyX5qt5b
0qZBEVhdO2urT5THuQFQ1H8G2RylkyqfYerXgHz6l+jVw6P2RNkWLJDQvR2OSy+m
lWmhCTo/kYS1tnoF86UahPXWJLKJw0ntvXsoaDq0qgZ7L4jg2nzM5y683zn/56pD
dh2q+2NMuoBUgiPxzqjjHtXJn/D6sYKLqjR2QIdBxTkOVrAgFEDs0vsszXivYQAJ
W/L42VpGH6nGYEO53CfMqZDRIGPiq4avWAzF1E4XplZv+oI5MdDuPLsDlpuKQccG
C2fp6cBQhw5D9CUMERP4zFqiKl4BHFQ9eveit6ALjZ8L8decNdh7FcwOxyhZXZiC
lmt/HOu2UQXcGz1Ljk4sD62rhG9bzAEmel3lcBD2e3ZU8bt8ge3bl/QkuZ1yupDo
Vt7HM3Cd1pdLv4FeXLawlm2K6BVx7ENLAbg2Uh2qkVkihgGPFeRH97wStn7nJKE5
5RMRpnLaLk5apf0HDMem/cvnsJn4z3StsZkcgqrYFcZ74P+dFQc5+ZAdqd4ER6OP
QxpZf3enQi2vRZQpR6xg7fc=
-----END CERTIFICATE-----
